; Function Attrs: mustprogress nofree nounwind willreturn memory(read) uwtable
define noundef float @_ZNK4ofbx8DataView7toFloatEv(ptr nocapture noundef nonnull readonly align 8 dereferenceable(17) %0) local_unnamed_addr #2 align 2 {
  %2 = getelementptr inbounds i8, ptr %0, i64 16
  %3 = load i8, ptr %2, align 8
  %4 = and i8 %3, 1
  %.not = icmp eq i8 %4, 0
  %5 = load ptr, ptr %0, align 8
  br i1 %.not, label %8, label %6

6:                                                ; preds = %1
  %7 = load float, ptr %5, align 4
  br label %11

8:                                                ; preds = %1
  %9 = tail call double @atof(ptr noundef %5) #30
  %10 = fptrunc double %9 to float
  br label %11

11:                                               ; preds = %8, %6
  %.0 = phi float [ %7, %6 ], [ %10, %8 ]
  ret float %.0
}